; Function Attrs: nounwind uwtable
define internal noundef i32 @count_cruft(ptr readnone captures(none) %0, ptr noundef %1, ptr readnone captures(none) %2) #0 {
  %4 = load i32, ptr @verbose, align 4, !tbaa !4
  %.not.i = icmp eq i32 %4, 0
  br i1 %.not.i, label %loose_garbage.exit, label %5

5:                                                ; preds = %3
  %6 = load ptr, ptr @report_garbage, align 8, !tbaa !23
  tail call void %6(i32 noundef 4, ptr noundef %1) #7
  br label %loose_garbage.exit

loose_garbage.exit:                               ; preds = %3, %5
  ret i32 0
}